target datalayout = "e-m:e-p270:32:32-p271:32:32-p272:64:64-i64:64-i128:128-f80:128-n8:16:32:64-S128"
target triple = "x86_64-pc-linux-gnu"

%class.QFlags = type { i32 }
%class.QPoint = type { i32, i32 }
%class.QSize = type { i32, i32 }
%class.QPointF = type { double, double }
%class.QWidget = type { %class.QObject, %class.QPaintDevice.base, ptr }
%class.QObject = type { ptr, %class.QScopedPointer }
%class.QScopedPointer = type { ptr }
%class.QPaintDevice.base = type <{ ptr, i16 }>
%class.QWidgetData = type { i64, i32, %class.QFlags, i32, %class.QRect, [4 x i8], %class.QPalette, %class.QFont, %class.QRect }
%class.QPalette = type <{ ptr, i32, [4 x i8] }>
%class.QFont = type <{ %class.QExplicitlySharedDataPointer.3, i32, [4 x i8] }>
%class.QExplicitlySharedDataPointer.3 = type { ptr }
%class.QRect = type { i32, i32, i32, i32 }
%class.QPointerEvent = type { %class.QInputEvent, %class.QList }
%class.QInputEvent = type { %class.QEvent, ptr, i64, %class.QFlags.0, i32 }
%class.QEvent = type { ptr, i16, i8, i8, i8, i8, i16 }
%class.QFlags.0 = type { i32 }
%class.QList = type { %struct.QArrayDataPointer.1 }
%struct.QArrayDataPointer.1 = type { ptr, ptr, i64 }
%"class.QList<QEventPoint>::const_iterator" = type { ptr }

; Function Attrs: mustprogress nounwind null_pointer_is_valid sspstrong uwtable
define linkonce_odr noundef ptr @_ZNK17QArrayDataPointerI11QEventPointE4dataEv(ptr noundef align 8 dereferenceable_or_null(24) %0) #5 comdat align 2 {
  %2 = alloca ptr, align 8
  store ptr %0, ptr %2, align 8
  %3 = load ptr, ptr %2, align 8
  %4 = getelementptr inbounds nuw %struct.QArrayDataPointer.1, ptr %3, i32 0, i32 1
  %5 = load ptr, ptr %4, align 8
  ret ptr %5
}

; Function Attrs: inlinehint mustprogress nounwind null_pointer_is_valid sspstrong uwtable
define linkonce_odr void @_ZN5QListI11QEventPointE14const_iteratorC2EPKS0_(ptr noundef align 8 dereferenceable_or_null(8) %0, ptr noundef %1) unnamed_addr #1 comdat align 2 {
  %3 = alloca ptr, align 8
  %4 = alloca ptr, align 8
  store ptr %0, ptr %3, align 8
  store ptr %1, ptr %4, align 8
  %5 = load ptr, ptr %3, align 8
  %6 = getelementptr inbounds nuw %"class.QList<QEventPoint>::const_iterator", ptr %5, i32 0, i32 0
  %7 = load ptr, ptr %4, align 8
  store ptr %7, ptr %6, align 8
  ret void
}

; Function Attrs: mustprogress nounwind null_pointer_is_valid sspstrong uwtable
define linkonce_odr noundef ptr @_ZNK17QArrayDataPointerI11QEventPointE10constBeginEv(ptr noundef align 8 dereferenceable_or_null(24) %0) #5 comdat align 2 {
  %2 = alloca ptr, align 8
  store ptr %0, ptr %2, align 8
  %3 = load ptr, ptr %2, align 8
  %4 = call noundef ptr @_ZNK17QArrayDataPointerI11QEventPointE4dataEv(ptr noundef align 8 dereferenceable_or_null(24) %3) #11
  ret ptr %4
}

; Function Attrs: mustprogress nounwind null_pointer_is_valid sspstrong uwtable
define linkonce_odr noundef ptr @_ZNK17QArrayDataPointerI11QEventPointEptEv(ptr noundef align 8 dereferenceable_or_null(24) %0) #5 comdat align 2 {
  %2 = alloca ptr, align 8
  store ptr %0, ptr %2, align 8
  %3 = load ptr, ptr %2, align 8
  ret ptr %3
}

; Function Attrs: noinline noreturn nounwind null_pointer_is_valid sspstrong uwtable
define linkonce_odr hidden void @__clang_call_terminate(ptr noundef %0) #9 comdat {
  %2 = call ptr @__cxa_begin_catch(ptr %0) #11
  call void @_ZSt9terminatev() #12
  unreachable
}

; Function Attrs: inlinehint mustprogress nounwind null_pointer_is_valid sspstrong uwtable
define linkonce_odr noundef align 8 dereferenceable(8) ptr @_ZNK5QListI11QEventPointE14const_iteratordeEv(ptr noundef align 8 dereferenceable_or_null(8) %0) #1 comdat align 2 {
  %2 = alloca ptr, align 8
  store ptr %0, ptr %2, align 8
  %3 = load ptr, ptr %2, align 8
  %4 = getelementptr inbounds nuw %"class.QList<QEventPoint>::const_iterator", ptr %3, i32 0, i32 0
  %5 = load ptr, ptr %4, align 8
  ret ptr %5
}

; Function Attrs: mustprogress nounwind null_pointer_is_valid sspstrong uwtable
define linkonce_odr ptr @_ZNK5QListI11QEventPointE5beginEv(ptr noundef align 8 dereferenceable_or_null(24) %0) #5 comdat align 2 personality ptr @__gxx_personality_v0 {
  %2 = alloca %"class.QList<QEventPoint>::const_iterator", align 8
  %3 = alloca ptr, align 8
  store ptr %0, ptr %3, align 8
  %4 = load ptr, ptr %3, align 8
  %5 = getelementptr inbounds nuw %class.QList, ptr %4, i32 0, i32 0
  %6 = call noundef ptr @_ZNK17QArrayDataPointerI11QEventPointEptEv(ptr noundef align 8 dereferenceable_or_null(24) %5) #11
  %7 = call noundef ptr @_ZNK17QArrayDataPointerI11QEventPointE10constBeginEv(ptr noundef align 8 dereferenceable_or_null(24) %6) #11
  invoke void @_ZN5QListI11QEventPointE14const_iteratorC2EPKS0_(ptr noundef align 8 dereferenceable_or_null(8) %2, ptr noundef %7)
          to label %8 unwind label %11

8:                                                ; preds = %1
  %9 = getelementptr inbounds nuw %"class.QList<QEventPoint>::const_iterator", ptr %2, i32 0, i32 0
  %10 = load ptr, ptr %9, align 8
  ret ptr %10

11:                                               ; preds = %1
  %12 = landingpad { ptr, i32 }
          catch ptr null
  %13 = extractvalue { ptr, i32 } %12, 0
  call void @__clang_call_terminate(ptr %13) #12
  unreachable
}

; Function Attrs: inlinehint mustprogress nounwind null_pointer_is_valid sspstrong uwtable
define linkonce_odr void @_ZN5QSizeC2Eii(ptr noundef align 4 dereferenceable_or_null(8) %0, i32 noundef %1, i32 noundef %2) unnamed_addr #1 comdat align 2 {
  %4 = alloca ptr, align 8
  %5 = alloca i32, align 4
  %6 = alloca i32, align 4
  store ptr %0, ptr %4, align 8
  store i32 %1, ptr %5, align 4
  store i32 %2, ptr %6, align 4
  %7 = load ptr, ptr %4, align 8
  %8 = getelementptr inbounds nuw %class.QSize, ptr %7, i32 0, i32 0
  %9 = load i32, ptr %5, align 4
  store i32 %9, ptr %8, align 4
  %10 = getelementptr inbounds nuw %class.QSize, ptr %7, i32 0, i32 1
  %11 = load i32, ptr %6, align 4
  store i32 %11, ptr %10, align 4
  ret void
}

; Function Attrs: inlinehint mustprogress nounwind null_pointer_is_valid sspstrong uwtable
define linkonce_odr noundef i32 @_ZNK5QRect6heightEv(ptr noundef align 4 dereferenceable_or_null(16) %0) #1 comdat align 2 {
  %2 = alloca ptr, align 8
  store ptr %0, ptr %2, align 8
  %3 = load ptr, ptr %2, align 8
  %4 = getelementptr inbounds nuw %class.QRect, ptr %3, i32 0, i32 3
  %5 = load i32, ptr %4, align 4
  %6 = getelementptr inbounds nuw %class.QRect, ptr %3, i32 0, i32 1
  %7 = load i32, ptr %6, align 4
  %8 = sub i32 %5, %7
  %9 = add i32 %8, 1
  ret i32 %9
}

; Function Attrs: inlinehint mustprogress nounwind null_pointer_is_valid sspstrong uwtable
define linkonce_odr noundef i32 @_ZNK5QRect5widthEv(ptr noundef align 4 dereferenceable_or_null(16) %0) #1 comdat align 2 {
  %2 = alloca ptr, align 8
  store ptr %0, ptr %2, align 8
  %3 = load ptr, ptr %2, align 8
  %4 = getelementptr inbounds nuw %class.QRect, ptr %3, i32 0, i32 2
  %5 = load i32, ptr %4, align 4
  %6 = getelementptr inbounds nuw %class.QRect, ptr %3, i32 0, i32 0
  %7 = load i32, ptr %6, align 4
  %8 = sub i32 %5, %7
  %9 = add i32 %8, 1
  ret i32 %9
}

; Function Attrs: inlinehint mustprogress nounwind null_pointer_is_valid sspstrong uwtable
define linkonce_odr void @_ZN6QPointC2Eii(ptr noundef align 4 dereferenceable_or_null(8) %0, i32 noundef %1, i32 noundef %2) unnamed_addr #1 comdat align 2 {
  %4 = alloca ptr, align 8
  %5 = alloca i32, align 4
  %6 = alloca i32, align 4
  store ptr %0, ptr %4, align 8
  store i32 %1, ptr %5, align 4
  store i32 %2, ptr %6, align 4
  %7 = load ptr, ptr %4, align 8
  %8 = getelementptr inbounds nuw %class.QPoint, ptr %7, i32 0, i32 0
  %9 = load i32, ptr %5, align 4
  store i32 %9, ptr %8, align 4
  %10 = getelementptr inbounds nuw %class.QPoint, ptr %7, i32 0, i32 1
  %11 = load i32, ptr %6, align 4
  store i32 %11, ptr %10, align 4
  ret void
}

; Function Attrs: inlinehint mustprogress nounwind null_pointer_is_valid sspstrong uwtable
define linkonce_odr noundef i32 @_Z6qRoundd(double noundef %0) #1 comdat {
  %2 = alloca double, align 8
  store double %0, ptr %2, align 8
  %3 = load double, ptr %2, align 8
  %4 = load double, ptr %2, align 8
  %5 = call double @llvm.copysign.f64(double 5.000000e-01, double %4)
  %6 = fadd double %3, %5
  %7 = fptosi double %6 to i32
  ret i32 %7
}

; Function Attrs: inlinehint mustprogress nounwind null_pointer_is_valid sspstrong uwtable
define linkonce_odr noundef align 8 dereferenceable(8) ptr @_ZNK5QListI11QEventPointE5firstEv(ptr noundef align 8 dereferenceable_or_null(24) %0) #1 comdat align 2 personality ptr @__gxx_personality_v0 {
  %2 = alloca ptr, align 8
  %3 = alloca %"class.QList<QEventPoint>::const_iterator", align 8
  store ptr %0, ptr %2, align 8
  %4 = load ptr, ptr %2, align 8
  call void @llvm.lifetime.start.p0(i64 8, ptr %3) #11
  %5 = call ptr @_ZNK5QListI11QEventPointE5beginEv(ptr noundef align 8 dereferenceable_or_null(24) %4) #11
  %6 = getelementptr inbounds nuw %"class.QList<QEventPoint>::const_iterator", ptr %3, i32 0, i32 0
  store ptr %5, ptr %6, align 8
  %7 = invoke noundef align 8 dereferenceable(8) ptr @_ZNK5QListI11QEventPointE14const_iteratordeEv(ptr noundef align 8 dereferenceable_or_null(8) %3)
          to label %8 unwind label %9

8:                                                ; preds = %1
  call void @llvm.lifetime.end.p0(i64 8, ptr %3) #11
  ret ptr %7

9:                                                ; preds = %1
  %10 = landingpad { ptr, i32 }
          catch ptr null
  %11 = extractvalue { ptr, i32 } %10, 0
  call void @__clang_call_terminate(ptr %11) #12
  unreachable
}

; Function Attrs: inlinehint mustprogress nounwind null_pointer_is_valid sspstrong uwtable
define linkonce_odr i64 @_ZNK5QRect4sizeEv(ptr noundef align 4 dereferenceable_or_null(16) %0) #1 comdat align 2 {
  %2 = alloca %class.QSize, align 4
  %3 = alloca ptr, align 8
  store ptr %0, ptr %3, align 8
  %4 = load ptr, ptr %3, align 8
  %5 = call noundef i32 @_ZNK5QRect5widthEv(ptr noundef align 4 dereferenceable_or_null(16) %4) #11
  %6 = call noundef i32 @_ZNK5QRect6heightEv(ptr noundef align 4 dereferenceable_or_null(16) %4) #11
  call void @_ZN5QSizeC2Eii(ptr noundef align 4 dereferenceable_or_null(8) %2, i32 noundef %5, i32 noundef %6) #11
  %7 = load i64, ptr %2, align 4
  ret i64 %7
}

; Function Attrs: inlinehint mustprogress null_pointer_is_valid sspstrong uwtable
define linkonce_odr i64 @_ZNK7QPointF7toPointEv(ptr noundef align 8 dereferenceable_or_null(16) %0) #7 comdat align 2 {
  %2 = alloca %class.QPoint, align 4
  %3 = alloca ptr, align 8
  store ptr %0, ptr %3, align 8
  %4 = load ptr, ptr %3, align 8
  %5 = getelementptr inbounds nuw %class.QPointF, ptr %4, i32 0, i32 0
  %6 = load double, ptr %5, align 8
  %7 = call noundef i32 @_Z6qRoundd(double noundef %6)
  %8 = getelementptr inbounds nuw %class.QPointF, ptr %4, i32 0, i32 1
  %9 = load double, ptr %8, align 8
  %10 = call noundef i32 @_Z6qRoundd(double noundef %9)
  call void @_ZN6QPointC2Eii(ptr noundef align 4 dereferenceable_or_null(8) %2, i32 noundef %7, i32 noundef %10) #11
  %11 = load i64, ptr %2, align 4
  ret i64 %11
}

; Function Attrs: inlinehint mustprogress null_pointer_is_valid sspstrong uwtable
define linkonce_odr { double, double } @_ZNK17QSinglePointEvent8positionEv(ptr noundef align 8 dereferenceable_or_null(80) %0) #7 comdat align 2 {
  %2 = alloca %class.QPointF, align 8
  %3 = alloca ptr, align 8
  store ptr %0, ptr %3, align 8
  %4 = load ptr, ptr %3, align 8
  %5 = getelementptr inbounds nuw %class.QPointerEvent, ptr %4, i32 0, i32 1
  %6 = call noundef align 8 dereferenceable(8) ptr @_ZNK5QListI11QEventPointE5firstEv(ptr noundef align 8 dereferenceable_or_null(24) %5) #11
  %7 = call { double, double } @_ZNK11QEventPoint8positionEv(ptr noundef align 8 dereferenceable_or_null(8) %6)
  %8 = getelementptr inbounds nuw { double, double }, ptr %2, i32 0, i32 0
  %9 = extractvalue { double, double } %7, 0
  store double %9, ptr %8, align 8
  %10 = getelementptr inbounds nuw { double, double }, ptr %2, i32 0, i32 1
  %11 = extractvalue { double, double } %7, 1
  store double %11, ptr %10, align 8
  %12 = load { double, double }, ptr %2, align 8
  ret { double, double } %12
}

; Function Attrs: inlinehint mustprogress nounwind null_pointer_is_valid sspstrong uwtable
define linkonce_odr noundef i32 @_ZNK5QSize6heightEv(ptr noundef align 4 dereferenceable_or_null(8) %0) #1 comdat align 2 {
  %2 = alloca ptr, align 8
  store ptr %0, ptr %2, align 8
  %3 = load ptr, ptr %2, align 8
  %4 = getelementptr inbounds nuw %class.QSize, ptr %3, i32 0, i32 1
  %5 = load i32, ptr %4, align 4
  ret i32 %5
}

; Function Attrs: inlinehint mustprogress nounwind null_pointer_is_valid sspstrong uwtable
define linkonce_odr noundef i32 @_ZNK6QPoint1yEv(ptr noundef align 4 dereferenceable_or_null(8) %0) #1 comdat align 2 {
  %2 = alloca ptr, align 8
  store ptr %0, ptr %2, align 8
  %3 = load ptr, ptr %2, align 8
  %4 = getelementptr inbounds nuw %class.QPoint, ptr %3, i32 0, i32 1
  %5 = load i32, ptr %4, align 4
  ret i32 %5
}

; Function Attrs: inlinehint mustprogress nounwind null_pointer_is_valid sspstrong uwtable
define linkonce_odr noundef i32 @_ZNK5QSize5widthEv(ptr noundef align 4 dereferenceable_or_null(8) %0) #1 comdat align 2 {
  %2 = alloca ptr, align 8
  store ptr %0, ptr %2, align 8
  %3 = load ptr, ptr %2, align 8
  %4 = getelementptr inbounds nuw %class.QSize, ptr %3, i32 0, i32 0
  %5 = load i32, ptr %4, align 4
  ret i32 %5
}

; Function Attrs: inlinehint mustprogress nounwind null_pointer_is_valid sspstrong uwtable
define linkonce_odr i64 @_ZNK7QWidget4sizeEv(ptr noundef align 8 dereferenceable_or_null(40) %0) #1 comdat align 2 {
  %2 = alloca %class.QSize, align 4
  %3 = alloca ptr, align 8
  store ptr %0, ptr %3, align 8
  %4 = load ptr, ptr %3, align 8
  %5 = getelementptr inbounds nuw %class.QWidget, ptr %4, i32 0, i32 2
  %6 = load ptr, ptr %5, align 8
  %7 = getelementptr inbounds nuw %class.QWidgetData, ptr %6, i32 0, i32 4
  %8 = call i64 @_ZNK5QRect4sizeEv(ptr noundef align 4 dereferenceable_or_null(16) %7) #11
  store i64 %8, ptr %2, align 4
  %9 = load i64, ptr %2, align 4
  ret i64 %9
}

; Function Attrs: inlinehint mustprogress nounwind null_pointer_is_valid sspstrong uwtable
define linkonce_odr noundef i32 @_ZNK6QPoint1xEv(ptr noundef align 4 dereferenceable_or_null(8) %0) #1 comdat align 2 {
  %2 = alloca ptr, align 8
  store ptr %0, ptr %2, align 8
  %3 = load ptr, ptr %2, align 8
  %4 = getelementptr inbounds nuw %class.QPoint, ptr %3, i32 0, i32 0
  %5 = load i32, ptr %4, align 4
  ret i32 %5
}

; Function Attrs: inlinehint mustprogress null_pointer_is_valid sspstrong uwtable
define linkonce_odr i64 @_ZNK11QMouseEvent3posEv(ptr noundef align 8 dereferenceable_or_null(80) %0) #7 comdat align 2 {
  %2 = alloca %class.QPoint, align 4
  %3 = alloca ptr, align 8
  %4 = alloca %class.QPointF, align 8
  store ptr %0, ptr %3, align 8
  %5 = load ptr, ptr %3, align 8
  call void @llvm.lifetime.start.p0(i64 16, ptr %4) #11
  %6 = call { double, double } @_ZNK17QSinglePointEvent8positionEv(ptr noundef align 8 dereferenceable_or_null(80) %5)
  %7 = getelementptr inbounds nuw { double, double }, ptr %4, i32 0, i32 0
  %8 = extractvalue { double, double } %6, 0
  store double %8, ptr %7, align 8
  %9 = getelementptr inbounds nuw { double, double }, ptr %4, i32 0, i32 1
  %10 = extractvalue { double, double } %6, 1
  store double %10, ptr %9, align 8
  %11 = call i64 @_ZNK7QPointF7toPointEv(ptr noundef align 8 dereferenceable_or_null(16) %4)
  store i64 %11, ptr %2, align 4
  call void @llvm.lifetime.end.p0(i64 16, ptr %4) #11
  %12 = load i64, ptr %2, align 4
  ret i64 %12
}

; Function Attrs: mustprogress null_pointer_is_valid sspstrong uwtable
define void @_ZN14ClickableLabel17mouseReleaseEventEP11QMouseEvent(ptr noundef align 8 dereferenceable_or_null(40) %0, ptr noundef %1) unnamed_addr #0 align 2 {
  %3 = alloca ptr, align 8
  %4 = alloca ptr, align 8
  %5 = alloca %class.QPoint, align 4
  %6 = alloca %class.QPoint, align 4
  %7 = alloca %class.QSize, align 4
  %8 = alloca %class.QPoint, align 4
  %9 = alloca %class.QPoint, align 4
  %10 = alloca %class.QSize, align 4
  store ptr %0, ptr %3, align 8
  store ptr %1, ptr %4, align 8
  %11 = load ptr, ptr %3, align 8
  call void @llvm.lifetime.start.p0(i64 8, ptr %5) #11
  %12 = load ptr, ptr %4, align 8
  %13 = call i64 @_ZNK11QMouseEvent3posEv(ptr noundef align 8 dereferenceable_or_null(80) %12)
  store i64 %13, ptr %5, align 4
  %14 = call noundef i32 @_ZNK6QPoint1xEv(ptr noundef align 4 dereferenceable_or_null(8) %5) #11
  %15 = icmp slt i32 %14, 0
  call void @llvm.lifetime.start.p0(i64 8, ptr %6) #11
  call void @llvm.lifetime.start.p0(i64 8, ptr %7) #11
  br i1 %15, label %23, label %16

16:                                               ; preds = %2
  %17 = load ptr, ptr %4, align 8
  %18 = call i64 @_ZNK11QMouseEvent3posEv(ptr noundef align 8 dereferenceable_or_null(80) %17)
  store i64 %18, ptr %6, align 4
  %19 = call noundef i32 @_ZNK6QPoint1xEv(ptr noundef align 4 dereferenceable_or_null(8) %6) #11
  %20 = call i64 @_ZNK7QWidget4sizeEv(ptr noundef align 8 dereferenceable_or_null(40) %11)
  store i64 %20, ptr %7, align 4
  %21 = call noundef i32 @_ZNK5QSize5widthEv(ptr noundef align 4 dereferenceable_or_null(8) %7) #11
  %22 = icmp sgt i32 %19, %21
  br label %23

23:                                               ; preds = %16, %2
  %24 = phi i1 [ true, %2 ], [ %22, %16 ]
  call void @llvm.lifetime.end.p0(i64 8, ptr %7) #11
  call void @llvm.lifetime.end.p0(i64 8, ptr %6) #11
  call void @llvm.lifetime.end.p0(i64 8, ptr %5) #11
  br i1 %24, label %25, label %26

25:                                               ; preds = %23
  br label %42

26:                                               ; preds = %23
  call void @llvm.lifetime.start.p0(i64 8, ptr %8) #11
  %27 = load ptr, ptr %4, align 8
  %28 = call i64 @_ZNK11QMouseEvent3posEv(ptr noundef align 8 dereferenceable_or_null(80) %27)
  store i64 %28, ptr %8, align 4
  %29 = call noundef i32 @_ZNK6QPoint1yEv(ptr noundef align 4 dereferenceable_or_null(8) %8) #11
  %30 = icmp slt i32 %29, 0
  call void @llvm.lifetime.start.p0(i64 8, ptr %9) #11
  call void @llvm.lifetime.start.p0(i64 8, ptr %10) #11
  br i1 %30, label %38, label %31

31:                                               ; preds = %26
  %32 = load ptr, ptr %4, align 8
  %33 = call i64 @_ZNK11QMouseEvent3posEv(ptr noundef align 8 dereferenceable_or_null(80) %32)
  store i64 %33, ptr %9, align 4
  %34 = call noundef i32 @_ZNK6QPoint1yEv(ptr noundef align 4 dereferenceable_or_null(8) %9) #11
  %35 = call i64 @_ZNK7QWidget4sizeEv(ptr noundef align 8 dereferenceable_or_null(40) %11)
  store i64 %35, ptr %10, align 4
  %36 = call noundef i32 @_ZNK5QSize6heightEv(ptr noundef align 4 dereferenceable_or_null(8) %10) #11
  %37 = icmp sgt i32 %34, %36
  br label %38

38:                                               ; preds = %31, %26
  %39 = phi i1 [ true, %26 ], [ %37, %31 ]
  call void @llvm.lifetime.end.p0(i64 8, ptr %10) #11
  call void @llvm.lifetime.end.p0(i64 8, ptr %9) #11
  call void @llvm.lifetime.end.p0(i64 8, ptr %8) #11
  br i1 %39, label %40, label %41

40:                                               ; preds = %38
  br label %42

41:                                               ; preds = %38
  call void @_ZN14ClickableLabel7clickedEv(ptr noundef align 8 dereferenceable_or_null(40) %11)
  br label %42

42:                                               ; preds = %41, %40, %25
  ret void
}