; Function Attrs: mustprogress null_pointer_is_valid sspstrong uwtable
define void @_ZN14ClickableLabel17mouseReleaseEventEP11QMouseEvent(ptr noundef align 8 dereferenceable_or_null(40) %0, ptr noundef readonly captures(none) %1) unnamed_addr #0 align 2 personality ptr @__gxx_personality_v0 {
  %3 = getelementptr inbounds nuw i8, ptr %1, i64 48
  %4 = load ptr, ptr %3, align 8
  %5 = tail call { double, double } @_ZNK11QEventPoint8positionEv(ptr noundef align 8 dereferenceable_or_null(8) %4)
  %6 = extractvalue { double, double } %5, 0
  %7 = tail call double @llvm.copysign.f64(double 5.000000e-01, double %6)
  %8 = fadd double %6, %7
  %9 = fptosi double %8 to i32
  %10 = icmp slt i32 %9, 0
  br i1 %10, label %.critedge, label %11

11:                                               ; preds = %2
  %12 = load ptr, ptr %3, align 8
  %13 = tail call { double, double } @_ZNK11QEventPoint8positionEv(ptr noundef align 8 dereferenceable_or_null(8) %12)
  %14 = extractvalue { double, double } %13, 0
  %15 = tail call double @llvm.copysign.f64(double 5.000000e-01, double %14)
  %16 = fadd double %14, %15
  %17 = fptosi double %16 to i32
  %18 = getelementptr inbounds nuw i8, ptr %0, i64 32
  %19 = load ptr, ptr %18, align 8
  %20 = getelementptr inbounds nuw i8, ptr %19, i64 20
  %21 = getelementptr inbounds nuw i8, ptr %19, i64 28
  %22 = load i32, ptr %21, align 4
  %23 = load i32, ptr %20, align 4
  %24 = add i32 %22, 1
  %25 = sub i32 %24, %23
  %26 = icmp slt i32 %25, %17
  br i1 %26, label %.critedge, label %27

27:                                               ; preds = %11
  %28 = load ptr, ptr %3, align 8
  %29 = tail call { double, double } @_ZNK11QEventPoint8positionEv(ptr noundef align 8 dereferenceable_or_null(8) %28)
  %30 = extractvalue { double, double } %29, 1
  %31 = tail call double @llvm.copysign.f64(double 5.000000e-01, double %30)
  %32 = fadd double %30, %31
  %33 = fptosi double %32 to i32
  %34 = icmp slt i32 %33, 0
  br i1 %34, label %.critedge, label %35

35:                                               ; preds = %27
  %36 = load ptr, ptr %3, align 8
  %37 = tail call { double, double } @_ZNK11QEventPoint8positionEv(ptr noundef align 8 dereferenceable_or_null(8) %36)
  %38 = extractvalue { double, double } %37, 1
  %39 = tail call double @llvm.copysign.f64(double 5.000000e-01, double %38)
  %40 = fadd double %38, %39
  %41 = fptosi double %40 to i32
  %42 = load ptr, ptr %18, align 8
  %43 = getelementptr inbounds nuw i8, ptr %42, i64 32
  %44 = load i32, ptr %43, align 4
  %45 = getelementptr inbounds nuw i8, ptr %42, i64 24
  %46 = load i32, ptr %45, align 4
  %47 = add i32 %44, 1
  %48 = sub i32 %47, %46
  %49 = icmp slt i32 %48, %41
  br i1 %49, label %.critedge, label %50

50:                                               ; preds = %35
  tail call void @_ZN14ClickableLabel7clickedEv(ptr noundef align 8 dereferenceable_or_null(40) %0)
  br label %.critedge

.critedge:                                        ; preds = %27, %2, %35, %11, %50
  ret void
}